; Function Attrs: mustprogress nounwind uwtable
define void @_ZN3spv14SpvBuildLogger20missingFunctionalityERKNSt7__cxx1112basic_stringIcSt11char_traitsIcESaIcEEE(ptr noundef nonnull align 8 dereferenceable(96) %0, ptr noundef nonnull align 8 dereferenceable(32) %1) local_unnamed_addr #0 align 2 {
  %3 = getelementptr inbounds nuw i8, ptr %0, i64 24
  %4 = load ptr, ptr %3, align 8
  %5 = getelementptr inbounds nuw i8, ptr %0, i64 32
  %6 = load ptr, ptr %5, align 8
  %7 = tail call ptr @_ZSt9__find_ifIN9__gnu_cxx17__normal_iteratorIPNSt7__cxx1112basic_stringIcSt11char_traitsIcESaIcEEESt6vectorIS7_SaIS7_EEEENS0_5__ops16_Iter_equals_valIKS7_EEET_SH_SH_T0_St26random_access_iterator_tag(ptr %4, ptr %6, ptr nonnull align 8 dereferenceable(32) %1)
  %8 = load ptr, ptr %5, align 8
  %9 = icmp eq ptr %7, %8
  br i1 %9, label %10, label %_ZNSt6vectorINSt7__cxx1112basic_stringIcSt11char_traitsIcESaIcEEESaIS5_EE9push_backERKS5_.exit

10:                                               ; preds = %2
  %11 = getelementptr inbounds nuw i8, ptr %0, i64 40
  %12 = load ptr, ptr %11, align 8
  %.not.i = icmp eq ptr %7, %12
  br i1 %.not.i, label %16, label %13

13:                                               ; preds = %10
  tail call void @_ZNSt7__cxx1112basic_stringIcSt11char_traitsIcESaIcEEC1ERKS4_(ptr noundef nonnull align 8 dereferenceable(32) %8, ptr noundef nonnull align 8 dereferenceable(32) %1) #9
  %14 = load ptr, ptr %5, align 8
  %15 = getelementptr inbounds nuw i8, ptr %14, i64 32
  store ptr %15, ptr %5, align 8
  br label %_ZNSt6vectorINSt7__cxx1112basic_stringIcSt11char_traitsIcESaIcEEESaIS5_EE9push_backERKS5_.exit

16:                                               ; preds = %10
  tail call void @_ZNSt6vectorINSt7__cxx1112basic_stringIcSt11char_traitsIcESaIcEEESaIS5_EE17_M_realloc_insertIJRKS5_EEEvN9__gnu_cxx17__normal_iteratorIPS5_S7_EEDpOT_(ptr noundef nonnull align 8 dereferenceable(24) %3, ptr %8, ptr noundef nonnull align 8 dereferenceable(32) %1)
  br label %_ZNSt6vectorINSt7__cxx1112basic_stringIcSt11char_traitsIcESaIcEEESaIS5_EE9push_backERKS5_.exit

_ZNSt6vectorINSt7__cxx1112basic_stringIcSt11char_traitsIcESaIcEEESaIS5_EE9push_backERKS5_.exit: ; preds = %16, %13, %2
  ret void
}